; Function Attrs: mustprogress nounwind uwtable
define hidden void @_ZN9Handshake7executeEP21AsyncHandshakeClosureP10JavaThread(ptr noundef %0, ptr noundef %1) local_unnamed_addr #0 align 2 {
  %3 = tail call noundef i64 @_ZN2os13javaTimeNanosEv() #11
  %4 = tail call noundef ptr @_Z12AllocateHeapm8MEMFLAGSN17AllocFailStrategy13AllocFailEnumE(i64 noundef 48, i8 noundef zeroext 2, i32 noundef 0) #11
  %5 = getelementptr inbounds i8, ptr %4, i64 8
  store ptr %0, ptr %5, align 8
  %6 = getelementptr inbounds i8, ptr %4, i64 16
  store i32 1, ptr %6, align 8
  %7 = getelementptr inbounds i8, ptr %4, i64 24
  store ptr %1, ptr %7, align 8
  %8 = getelementptr inbounds i8, ptr %4, i64 32
  store ptr null, ptr %8, align 8
  store ptr getelementptr inbounds inrange(-16, 16) (i8, ptr @_ZTV23AsyncHandshakeOperation, i64 16), ptr %4, align 8
  %9 = getelementptr inbounds i8, ptr %4, i64 40
  store i64 %3, ptr %9, align 8
  %.not = icmp eq ptr %1, null
  br i1 %.not, label %10, label %12

10:                                               ; preds = %2
  %11 = load ptr, ptr @g_assert_poison, align 8
  store i8 88, ptr %11, align 1
  tail call void (ptr, i32, ptr, ptr, ...) @_Z15report_vm_errorPKciS0_S0_z(ptr noundef nonnull @.str.6, i32 noundef 424, ptr noundef nonnull @.str.7, ptr noundef nonnull @.str.8) #12
  unreachable

12:                                               ; preds = %2
  %13 = tail call align 8 ptr @llvm.threadlocal.address.p0(ptr align 8 @_ZN6Thread12_thr_currentE)
  %14 = load ptr, ptr %13, align 8
  %.not11 = icmp eq ptr %14, %1
  br i1 %.not11, label %19, label %15

15:                                               ; preds = %12
  %16 = tail call noundef zeroext i1 @_ZN6Thread30is_JavaThread_protected_by_TLHEPK10JavaThread(ptr noundef nonnull %1) #11
  br i1 %16, label %19, label %17

17:                                               ; preds = %15
  %18 = load ptr, ptr @g_assert_poison, align 8
  store i8 88, ptr %18, align 1
  tail call void (ptr, i32, ptr, ptr, ...) @_Z15report_vm_errorPKciS0_S0_z(ptr noundef nonnull @.str.6, i32 noundef 431, ptr noundef nonnull @.str.9, ptr noundef nonnull @.str.10) #12
  unreachable

19:                                               ; preds = %15, %12
  %20 = getelementptr inbounds i8, ptr %1, i64 1384
  %21 = getelementptr inbounds i8, ptr %1, i64 1392
  tail call void @_ZN11FilterQueueIP18HandshakeOperationE4pushES1_(ptr noundef nonnull align 8 dereferenceable(8) %21, ptr noundef nonnull %4)
  %22 = load ptr, ptr %20, align 8
  tail call void asm sideeffect "", "~{memory},~{dirflag},~{fpsr},~{flags}"() #11, !srcloc !6
  %23 = getelementptr inbounds i8, ptr %22, i64 1096
  %24 = load i64, ptr @_ZN18SafepointMechanism22_poll_word_armed_valueE, align 8
  store volatile i64 %24, ptr %23, align 8
  %25 = load i64, ptr @_ZN18SafepointMechanism22_poll_page_armed_valueE, align 8
  %26 = getelementptr inbounds i8, ptr %22, i64 1104
  store volatile i64 %25, ptr %26, align 8
  ret void
}